; ModuleID = '24/1049.c'
source_filename = "24/1049.c"
target datalayout = "e-m:e-p270:32:32-p271:32:32-p272:64:64-i64:64-f80:128-n8:16:32:64-S128"
target triple = "x86_64-pc-linux-gnu"

@.str = private unnamed_addr constant [2 x i8] c" \00", align 1
@.str.1 = private unnamed_addr constant [4 x i8] c"%s\0A\00", align 1

; Function Attrs: noinline nounwind uwtable
define dso_local i32 @main() #0 {
  %1 = alloca i32, align 4
  %2 = alloca [100 x i8], align 16
  %3 = alloca i32, align 4
  %4 = alloca i32, align 4
  %5 = alloca i8*, align 8
  %6 = alloca i8*, align 8
  %7 = alloca i8*, align 8
  %8 = alloca i32, align 4
  store i32 0, i32* %1, align 4
  %9 = getelementptr inbounds [100 x i8], [100 x i8]* %2, i64 0, i64 0
  %10 = call i32 (i8*, ...) bitcast (i32 (...)* @gets to i32 (i8*, ...)*)(i8* %9)
  store i32 0, i32* %3, align 4
  store i32 9999, i32* %4, align 4
  store i8* null, i8** %5, align 8
  store i8* null, i8** %6, align 8
  %11 = getelementptr inbounds [100 x i8], [100 x i8]* %2, i64 0, i64 0
  %12 = call i8* @strtok(i8* %11, i8* getelementptr inbounds ([2 x i8], [2 x i8]* @.str, i64 0, i64 0)) #4
  store i8* %12, i8** %7, align 8
  br label %13

13:                                               ; preds = %33, %0
  %14 = load i8*, i8** %7, align 8
  %15 = icmp ne i8* %14, null
  br i1 %15, label %16, label %35

16:                                               ; preds = %13
  %17 = load i8*, i8** %7, align 8
  %18 = call i64 @strlen(i8* %17) #5
  %19 = trunc i64 %18 to i32
  store i32 %19, i32* %8, align 4
  %20 = load i32, i32* %8, align 4
  %21 = load i32, i32* %3, align 4
  %22 = icmp sgt i32 %20, %21
  br i1 %22, label %23, label %26

23:                                               ; preds = %16
  %24 = load i32, i32* %8, align 4
  store i32 %24, i32* %3, align 4
  %25 = load i8*, i8** %7, align 8
  store i8* %25, i8** %5, align 8
  br label %26

26:                                               ; preds = %23, %16
  %27 = load i32, i32* %8, align 4
  %28 = load i32, i32* %4, align 4
  %29 = icmp slt i32 %27, %28
  br i1 %29, label %30, label %33

30:                                               ; preds = %26
  %31 = load i32, i32* %8, align 4
  store i32 %31, i32* %4, align 4
  %32 = load i8*, i8** %7, align 8
  store i8* %32, i8** %6, align 8
  br label %33

33:                                               ; preds = %30, %26
  %34 = call i8* @strtok(i8* null, i8* getelementptr inbounds ([2 x i8], [2 x i8]* @.str, i64 0, i64 0)) #4
  store i8* %34, i8** %7, align 8
  br label %13

35:                                               ; preds = %13
  %36 = load i8*, i8** %5, align 8
  %37 = call i32 (i8*, ...) @printf(i8* getelementptr inbounds ([4 x i8], [4 x i8]* @.str.1, i64 0, i64 0), i8* %36)
  %38 = load i8*, i8** %6, align 8
  %39 = call i32 (i8*, ...) @printf(i8* getelementptr inbounds ([4 x i8], [4 x i8]* @.str.1, i64 0, i64 0), i8* %38)
  ret i32 0
}

declare dso_local i32 @gets(...) #1

; Function Attrs: nounwind
declare dso_local i8* @strtok(i8*, i8*) #2

; Function Attrs: nounwind readonly
declare dso_local i64 @strlen(i8*) #3

declare dso_local i32 @printf(i8*, ...) #1


!llvm.module.flags = !{!0}
!llvm.ident = !{!1}

!0 = !{i32 1, !"wchar_size", i32 4}
!1 = !{!"clang version 10.0.0-4ubuntu1 "}
