; ModuleID = 'source-C-CXX/23/1049.c'
source_filename = "source-C-CXX/23/1049.c"
target datalayout = "e-m:e-p270:32:32-p271:32:32-p272:64:64-i64:64-f80:128-n8:16:32:64-S128"
target triple = "x86_64-pc-linux-gnu"

@.str = private unnamed_addr constant [2 x i8] c" \00", align 1

; Function Attrs: nounwind sspstrong uwtable
define dso_local i32 @main() local_unnamed_addr #0 {
  %1 = alloca [100 x i8], align 16
  %2 = getelementptr inbounds [100 x i8], [100 x i8]* %1, i64 0, i64 0
  call void @llvm.lifetime.start.p0i8(i64 100, i8* nonnull %2) #6
  %3 = call i32 (i8*, ...) bitcast (i32 (...)* @gets to i32 (i8*, ...)*)(i8* nonnull %2) #6
  %4 = call i8* @strtok(i8* nonnull %2, i8* getelementptr inbounds ([2 x i8], [2 x i8]* @.str, i64 0, i64 0)) #6
  br label %5

5:                                                ; preds = %0, %5
  %6 = phi i32 [ %15, %5 ], [ 0, %0 ]
  %7 = phi i8* [ %19, %5 ], [ %4, %0 ]
  %8 = phi i8* [ %18, %5 ], [ null, %0 ]
  %9 = phi i8* [ %14, %5 ], [ null, %0 ]
  %10 = phi i32 [ %17, %5 ], [ 9999, %0 ]
  %11 = call i64 @strlen(i8* noundef nonnull %7) #7
  %12 = trunc i64 %11 to i32
  %13 = icmp slt i32 %6, %12
  %14 = select i1 %13, i8* %7, i8* %9
  %15 = select i1 %13, i32 %12, i32 %6
  %16 = icmp sgt i32 %10, %12
  %17 = select i1 %16, i32 %12, i32 %10
  %18 = select i1 %16, i8* %7, i8* %8
  %19 = call i8* @strtok(i8* null, i8* getelementptr inbounds ([2 x i8], [2 x i8]* @.str, i64 0, i64 0)) #6
  %20 = icmp eq i8* %19, null
  br i1 %20, label %21, label %5, !llvm.loop !5

21:                                               ; preds = %5
  %22 = call i32 @puts(i8* nonnull dereferenceable(1) %14)
  %23 = call i32 @puts(i8* nonnull dereferenceable(1) %18)
  call void @llvm.lifetime.end.p0i8(i64 100, i8* nonnull %2) #6
  ret i32 0
}

; Function Attrs: argmemonly mustprogress nofree nosync nounwind willreturn
declare void @llvm.lifetime.start.p0i8(i64 immarg, i8* nocapture) #1

declare i32 @gets(...) local_unnamed_addr #2

; Function Attrs: mustprogress nofree nounwind willreturn
declare i8* @strtok(i8*, i8* nocapture readonly) local_unnamed_addr #3

; Function Attrs: argmemonly mustprogress nofree nounwind readonly willreturn
declare i64 @strlen(i8* nocapture) local_unnamed_addr #4

; Function Attrs: argmemonly mustprogress nofree nosync nounwind willreturn
declare void @llvm.lifetime.end.p0i8(i64 immarg, i8* nocapture) #1

; Function Attrs: nofree nounwind
declare noundef i32 @puts(i8* nocapture noundef readonly) local_unnamed_addr #5


!llvm.module.flags = !{!0, !1, !2, !3}
!llvm.ident = !{!4}

!0 = !{i32 1, !"wchar_size", i32 4}
!1 = !{i32 7, !"PIC Level", i32 2}
!2 = !{i32 7, !"PIE Level", i32 2}
!3 = !{i32 7, !"uwtable", i32 1}
!4 = !{!"clang version 13.0.0"}
!5 = distinct !{!5, !6}
!6 = !{!"llvm.loop.mustprogress"}
